target datalayout = "e-m:e-p270:32:32-p271:32:32-p272:64:64-i64:64-i128:128-f80:128-n8:16:32:64-S128"
target triple = "x86_64-pc-linux-gnu"

%struct.mock_srv_ctx = type { ptr, ptr, ptr, ptr, ptr, ptr, ptr, ptr, ptr, ptr, i32, ptr, i32, i32, i32 }

@.str = private unnamed_addr constant [35 x i8] c"../openssl/apps/lib/cmp_mock_srv.c\00", align 1

; Function Attrs: nounwind uwtable
define internal void @mock_srv_ctx_free(ptr noundef %0) #0 {
  %2 = alloca ptr, align 8
  store ptr %0, ptr %2, align 8, !tbaa !11
  %3 = load ptr, ptr %2, align 8, !tbaa !11
  %4 = icmp eq ptr %3, null
  br i1 %4, label %5, label %6

5:                                                ; preds = %1
  br label %26

6:                                                ; preds = %1
  %7 = load ptr, ptr %2, align 8, !tbaa !11
  %8 = getelementptr inbounds nuw %struct.mock_srv_ctx, ptr %7, i32 0, i32 9
  %9 = load ptr, ptr %8, align 8, !tbaa !35
  call void @OSSL_CMP_PKISI_free(ptr noundef %9)
  %10 = load ptr, ptr %2, align 8, !tbaa !11
  %11 = getelementptr inbounds nuw %struct.mock_srv_ctx, ptr %10, i32 0, i32 0
  %12 = load ptr, ptr %11, align 8, !tbaa !12
  call void @X509_free(ptr noundef %12)
  %13 = load ptr, ptr %2, align 8, !tbaa !11
  %14 = getelementptr inbounds nuw %struct.mock_srv_ctx, ptr %13, i32 0, i32 1
  %15 = load ptr, ptr %14, align 8, !tbaa !20
  call void @X509_free(ptr noundef %15)
  %16 = load ptr, ptr %2, align 8, !tbaa !11
  %17 = getelementptr inbounds nuw %struct.mock_srv_ctx, ptr %16, i32 0, i32 4
  %18 = load ptr, ptr %17, align 8, !tbaa !26
  call void @OSSL_STACK_OF_X509_free(ptr noundef %18)
  %19 = load ptr, ptr %2, align 8, !tbaa !11
  %20 = getelementptr inbounds nuw %struct.mock_srv_ctx, ptr %19, i32 0, i32 5
  %21 = load ptr, ptr %20, align 8, !tbaa !27
  call void @OSSL_STACK_OF_X509_free(ptr noundef %21)
  %22 = load ptr, ptr %2, align 8, !tbaa !11
  %23 = getelementptr inbounds nuw %struct.mock_srv_ctx, ptr %22, i32 0, i32 11
  %24 = load ptr, ptr %23, align 8, !tbaa !51
  call void @OSSL_CMP_MSG_free(ptr noundef %24)
  %25 = load ptr, ptr %2, align 8, !tbaa !11
  call void @CRYPTO_free(ptr noundef %25, ptr noundef @.str, i32 noundef 48)
  br label %26

26:                                               ; preds = %6, %5
  ret void
}