; Function Attrs: nounwind uwtable
define internal fastcc void @mock_srv_ctx_free(ptr noundef %0) unnamed_addr #0 {
  %2 = icmp eq ptr %0, null
  br i1 %2, label %15, label %3

3:                                                ; preds = %1
  %4 = getelementptr inbounds nuw i8, ptr %0, i64 72
  %5 = load ptr, ptr %4, align 8, !tbaa !24
  tail call void @OSSL_CMP_PKISI_free(ptr noundef %5) #4
  %6 = load ptr, ptr %0, align 8, !tbaa !4
  tail call void @X509_free(ptr noundef %6) #4
  %7 = getelementptr inbounds nuw i8, ptr %0, i64 8
  %8 = load ptr, ptr %7, align 8, !tbaa !16
  tail call void @X509_free(ptr noundef %8) #4
  %9 = getelementptr inbounds nuw i8, ptr %0, i64 32
  %10 = load ptr, ptr %9, align 8, !tbaa !19
  tail call void @OSSL_STACK_OF_X509_free(ptr noundef %10) #4
  %11 = getelementptr inbounds nuw i8, ptr %0, i64 40
  %12 = load ptr, ptr %11, align 8, !tbaa !20
  tail call void @OSSL_STACK_OF_X509_free(ptr noundef %12) #4
  %13 = getelementptr inbounds nuw i8, ptr %0, i64 88
  %14 = load ptr, ptr %13, align 8, !tbaa !28
  tail call void @OSSL_CMP_MSG_free(ptr noundef %14) #4
  tail call void @CRYPTO_free(ptr noundef nonnull %0, ptr noundef nonnull @.str, i32 noundef 48) #4
  br label %15

15:                                               ; preds = %1, %3
  ret void
}